target datalayout = "e-m:e-p270:32:32-p271:32:32-p272:64:64-i64:64-i128:128-f80:128-n8:16:32:64-S128"
target triple = "x86_64-pc-linux-gnu"

%struct._Node = type { %union.anon }
%union.anon = type { %struct.StrNode }
%struct.StrNode = type { %struct.NodeBase, ptr, ptr, i32, i32, [24 x i8] }
%struct.NodeBase = type { i32 }
%struct.ConsAltNode = type { %struct.NodeBase, ptr, ptr }
%struct.QtfrNode = type { %struct.NodeBase, i32, ptr, i32, i32, i32, i32, ptr, ptr, i32 }
%struct.EncloseNode = type { %struct.NodeBase, i32, i32, i32, i32, i32, ptr, i64, i64, i32, i32 }
%struct.AnchorNode = type { %struct.NodeBase, i32, ptr, i32, i32 }

; Function Attrs: nounwind sspstrong uwtable
define internal i32 @subexp_inf_recursive_check_trav(ptr noundef %0, ptr noundef %1) #0 {
  %3 = alloca i32, align 4
  %4 = alloca ptr, align 8
  %5 = alloca ptr, align 8
  %6 = alloca i32, align 4
  %7 = alloca i32, align 4
  %8 = alloca ptr, align 8
  %9 = alloca ptr, align 8
  %10 = alloca i32, align 4
  store ptr %0, ptr %4, align 8, !tbaa !66
  store ptr %1, ptr %5, align 8, !tbaa !36
  call void @llvm.lifetime.start.p0(i64 4, ptr %6) #11
  call void @llvm.lifetime.start.p0(i64 4, ptr %7) #11
  store i32 0, ptr %7, align 4, !tbaa !7
  %11 = load ptr, ptr %4, align 8, !tbaa !66
  %12 = getelementptr inbounds nuw %struct._Node, ptr %11, i32 0, i32 0
  %13 = getelementptr inbounds nuw %struct.NodeBase, ptr %12, i32 0, i32 0
  %14 = load i32, ptr %13, align 8, !tbaa !38
  store i32 %14, ptr %6, align 4, !tbaa !7
  %15 = load i32, ptr %6, align 4, !tbaa !7
  switch i32 %15, label %93 [
    i32 8, label %16
    i32 9, label %16
    i32 5, label %36
    i32 7, label %43
    i32 6, label %56
  ]

16:                                               ; preds = %2, %2
  br label %17

17:                                               ; preds = %33, %16
  %18 = load ptr, ptr %4, align 8, !tbaa !66
  %19 = getelementptr inbounds nuw %struct._Node, ptr %18, i32 0, i32 0
  %20 = getelementptr inbounds nuw %struct.ConsAltNode, ptr %19, i32 0, i32 1
  %21 = load ptr, ptr %20, align 8, !tbaa !38
  %22 = load ptr, ptr %5, align 8, !tbaa !36
  %23 = call i32 @subexp_inf_recursive_check_trav(ptr noundef %21, ptr noundef %22)
  store i32 %23, ptr %7, align 4, !tbaa !7
  br label %24

24:                                               ; preds = %17
  %25 = load i32, ptr %7, align 4, !tbaa !7
  %26 = icmp eq i32 %25, 0
  br i1 %26, label %27, label %33

27:                                               ; preds = %24
  %28 = load ptr, ptr %4, align 8, !tbaa !66
  %29 = getelementptr inbounds nuw %struct._Node, ptr %28, i32 0, i32 0
  %30 = getelementptr inbounds nuw %struct.ConsAltNode, ptr %29, i32 0, i32 2
  %31 = load ptr, ptr %30, align 8, !tbaa !38
  store ptr %31, ptr %4, align 8, !tbaa !66
  %32 = icmp ne ptr %31, null
  br label %33

33:                                               ; preds = %27, %24
  %34 = phi i1 [ false, %24 ], [ %32, %27 ]
  br i1 %34, label %17, label %35, !llvm.loop !113

35:                                               ; preds = %33
  br label %94

36:                                               ; preds = %2
  %37 = load ptr, ptr %4, align 8, !tbaa !66
  %38 = getelementptr inbounds nuw %struct._Node, ptr %37, i32 0, i32 0
  %39 = getelementptr inbounds nuw %struct.QtfrNode, ptr %38, i32 0, i32 2
  %40 = load ptr, ptr %39, align 8, !tbaa !38
  %41 = load ptr, ptr %5, align 8, !tbaa !36
  %42 = call i32 @subexp_inf_recursive_check_trav(ptr noundef %40, ptr noundef %41)
  store i32 %42, ptr %7, align 4, !tbaa !7
  br label %94

43:                                               ; preds = %2
  call void @llvm.lifetime.start.p0(i64 8, ptr %8) #11
  %44 = load ptr, ptr %4, align 8, !tbaa !66
  %45 = getelementptr inbounds nuw %struct._Node, ptr %44, i32 0, i32 0
  store ptr %45, ptr %8, align 8, !tbaa !36
  %46 = load ptr, ptr %8, align 8, !tbaa !36
  %47 = getelementptr inbounds nuw %struct.AnchorNode, ptr %46, i32 0, i32 1
  %48 = load i32, ptr %47, align 4, !tbaa !106
  switch i32 %48, label %55 [
    i32 1024, label %49
    i32 2048, label %49
    i32 4096, label %49
    i32 8192, label %49
  ]

49:                                               ; preds = %43, %43, %43, %43
  %50 = load ptr, ptr %8, align 8, !tbaa !36
  %51 = getelementptr inbounds nuw %struct.AnchorNode, ptr %50, i32 0, i32 2
  %52 = load ptr, ptr %51, align 8, !tbaa !108
  %53 = load ptr, ptr %5, align 8, !tbaa !36
  %54 = call i32 @subexp_inf_recursive_check_trav(ptr noundef %52, ptr noundef %53)
  store i32 %54, ptr %7, align 4, !tbaa !7
  br label %55

55:                                               ; preds = %43, %49
  call void @llvm.lifetime.end.p0(i64 8, ptr %8) #11
  br label %94

56:                                               ; preds = %2
  call void @llvm.lifetime.start.p0(i64 8, ptr %9) #11
  %57 = load ptr, ptr %4, align 8, !tbaa !66
  %58 = getelementptr inbounds nuw %struct._Node, ptr %57, i32 0, i32 0
  store ptr %58, ptr %9, align 8, !tbaa !36
  %59 = load ptr, ptr %9, align 8, !tbaa !36
  %60 = getelementptr inbounds nuw %struct.EncloseNode, ptr %59, i32 0, i32 1
  %61 = load i32, ptr %60, align 4, !tbaa !110
  %62 = and i32 %61, 128
  %63 = icmp ne i32 %62, 0
  br i1 %63, label %64, label %84

64:                                               ; preds = %56
  %65 = load ptr, ptr %4, align 8, !tbaa !66
  %66 = getelementptr inbounds nuw %struct._Node, ptr %65, i32 0, i32 0
  %67 = getelementptr inbounds nuw %struct.EncloseNode, ptr %66, i32 0, i32 1
  %68 = load i32, ptr %67, align 4, !tbaa !38
  %69 = or i32 %68, 8
  store i32 %69, ptr %67, align 4, !tbaa !38
  %70 = load ptr, ptr %9, align 8, !tbaa !36
  %71 = getelementptr inbounds nuw %struct.EncloseNode, ptr %70, i32 0, i32 6
  %72 = load ptr, ptr %71, align 8, !tbaa !112
  %73 = load ptr, ptr %5, align 8, !tbaa !36
  %74 = call i32 @subexp_inf_recursive_check(ptr noundef %72, ptr noundef %73, i32 noundef 1)
  store i32 %74, ptr %7, align 4, !tbaa !7
  %75 = load i32, ptr %7, align 4, !tbaa !7
  %76 = icmp sgt i32 %75, 0
  br i1 %76, label %77, label %78

77:                                               ; preds = %64
  store i32 -221, ptr %3, align 4
  store i32 1, ptr %10, align 4
  br label %90

78:                                               ; preds = %64
  %79 = load ptr, ptr %4, align 8, !tbaa !66
  %80 = getelementptr inbounds nuw %struct._Node, ptr %79, i32 0, i32 0
  %81 = getelementptr inbounds nuw %struct.EncloseNode, ptr %80, i32 0, i32 1
  %82 = load i32, ptr %81, align 4, !tbaa !38
  %83 = and i32 %82, -9
  store i32 %83, ptr %81, align 4, !tbaa !38
  br label %84

84:                                               ; preds = %78, %56
  %85 = load ptr, ptr %9, align 8, !tbaa !36
  %86 = getelementptr inbounds nuw %struct.EncloseNode, ptr %85, i32 0, i32 6
  %87 = load ptr, ptr %86, align 8, !tbaa !112
  %88 = load ptr, ptr %5, align 8, !tbaa !36
  %89 = call i32 @subexp_inf_recursive_check_trav(ptr noundef %87, ptr noundef %88)
  store i32 %89, ptr %7, align 4, !tbaa !7
  store i32 0, ptr %10, align 4
  br label %90

90:                                               ; preds = %84, %77
  call void @llvm.lifetime.end.p0(i64 8, ptr %9) #11
  %91 = load i32, ptr %10, align 4
  switch i32 %91, label %96 [
    i32 0, label %92
  ]

92:                                               ; preds = %90
  br label %94

93:                                               ; preds = %2
  br label %94

94:                                               ; preds = %93, %92, %55, %36, %35
  %95 = load i32, ptr %7, align 4, !tbaa !7
  store i32 %95, ptr %3, align 4
  store i32 1, ptr %10, align 4
  br label %96

96:                                               ; preds = %94, %90
  call void @llvm.lifetime.end.p0(i64 4, ptr %7) #11
  call void @llvm.lifetime.end.p0(i64 4, ptr %6) #11
  %97 = load i32, ptr %3, align 4
  ret i32 %97
}