; Function Attrs: nofree nosync nounwind sspstrong memory(readwrite, inaccessiblemem: none) uwtable
define internal fastcc range(i32 -221, 1) i32 @subexp_inf_recursive_check_trav(ptr noundef captures(none) %0, ptr noundef nonnull %1) unnamed_addr #13 {
  br label %tailrecurse

tailrecurse:                                      ; preds = %tailrecurse.backedge, %2
  %.tr = phi ptr [ %0, %2 ], [ %.tr.be, %tailrecurse.backedge ]
  %3 = load i32, ptr %.tr, align 8, !tbaa !34
  switch i32 %3, label %.critedge [
    i32 8, label %.preheader
    i32 9, label %.preheader
    i32 5, label %tailrecurse.backedge
    i32 7, label %13
    i32 6, label %19
  ]

.preheader:                                       ; preds = %tailrecurse, %tailrecurse
  br label %4

4:                                                ; preds = %.preheader, %9
  %.024 = phi ptr [ %11, %9 ], [ %.tr, %.preheader ]
  %5 = getelementptr inbounds nuw i8, ptr %.024, i64 8
  %6 = load ptr, ptr %5, align 8, !tbaa !34
  %7 = tail call fastcc i32 @subexp_inf_recursive_check_trav(ptr noundef %6, ptr noundef %1)
  %8 = icmp eq i32 %7, 0
  br i1 %8, label %9, label %.critedge

9:                                                ; preds = %4
  %10 = getelementptr inbounds nuw i8, ptr %.024, i64 16
  %11 = load ptr, ptr %10, align 8, !tbaa !34
  %.not31 = icmp eq ptr %11, null
  br i1 %.not31, label %.critedge, label %4, !llvm.loop !145

switch.hole_check:                                ; preds = %13
  %switch.maskindex = trunc nuw i32 %17 to i8
  %switch.shifted = lshr i8 -117, %switch.maskindex
  %switch.lobit = trunc i8 %switch.shifted to i1
  br i1 %switch.lobit, label %tailrecurse.backedge, label %.critedge

tailrecurse.backedge:                             ; preds = %switch.hole_check, %tailrecurse, %29, %19
  %.sink = phi i64 [ 24, %19 ], [ 24, %29 ], [ 8, %tailrecurse ], [ 8, %switch.hole_check ]
  %12 = getelementptr inbounds nuw i8, ptr %.tr, i64 %.sink
  %.tr.be = load ptr, ptr %12, align 8, !tbaa !34
  br label %tailrecurse

13:                                               ; preds = %tailrecurse
  %14 = getelementptr inbounds nuw i8, ptr %.tr, i64 4
  %15 = load i32, ptr %14, align 4, !tbaa !138
  %16 = add i32 %15, -1024
  %17 = tail call i32 @llvm.fshl.i32(i32 %16, i32 %16, i32 22)
  %18 = icmp ult i32 %17, 8
  br i1 %18, label %switch.hole_check, label %.critedge

19:                                               ; preds = %tailrecurse
  %20 = getelementptr inbounds nuw i8, ptr %.tr, i64 4
  %21 = load i32, ptr %20, align 4, !tbaa !142
  %22 = and i32 %21, 128
  %.not = icmp eq i32 %22, 0
  br i1 %.not, label %tailrecurse.backedge, label %23

23:                                               ; preds = %19
  %24 = or i32 %21, 8
  store i32 %24, ptr %20, align 4, !tbaa !34
  %25 = getelementptr inbounds nuw i8, ptr %.tr, i64 24
  %26 = load ptr, ptr %25, align 8, !tbaa !144
  %27 = tail call fastcc i32 @subexp_inf_recursive_check(ptr noundef %26, ptr noundef %1, i32 noundef 1)
  %28 = icmp sgt i32 %27, 0
  br i1 %28, label %.critedge, label %29

29:                                               ; preds = %23
  %30 = load i32, ptr %20, align 4, !tbaa !34
  %31 = and i32 %30, -9
  store i32 %31, ptr %20, align 4, !tbaa !34
  br label %tailrecurse.backedge

.critedge:                                        ; preds = %23, %tailrecurse, %13, %switch.hole_check, %9, %4
  %.1 = phi i32 [ %7, %4 ], [ 0, %9 ], [ 0, %switch.hole_check ], [ -221, %23 ], [ 0, %13 ], [ 0, %tailrecurse ]
  ret i32 %.1
}